ccopy_reg
_reconstructor
p0
(c__main__
User
p1
c__builtin__
object
p2
Ntp3
Rp4
(dp5
Vname
p6
VA
p7
sVusername
p8
VB
p9
sVpassword
p10
VC
p11
sb.1
sb.ccopy_reg
_reconstructor
p0
(c__main__
User
p1
c__builtin__
object
p2
Ntp3
Rp4
(dp5
Vname
p6
VV
p7
sVusername
p8
VA
p9
sVpassword
p10
VC
p11
sb.ccopy_reg
_reconstructor
p0
(c__main__
User
p1
c__builtin__
object
p2
Ntp3
Rp4
(dp5
Vname
p6
V
p7
sVusername
p8
g7
sVpassword
p9
g7
sVcar
p10
L0L
sb.